target datalayout = "e-m:e-p270:32:32-p271:32:32-p272:64:64-i64:64-i128:128-f80:128-n8:16:32:64-S128"
target triple = "x86_64-pc-linux-gnu"

; Function Attrs: nounwind sspstrong uwtable
define hidden void @FLAC__window_flattop(ptr noundef %0, i32 noundef %1) #0 {
  %3 = alloca ptr, align 8
  %4 = alloca i32, align 4
  %5 = alloca i32, align 4
  %6 = alloca i32, align 4
  store ptr %0, ptr %3, align 8, !tbaa !3
  store i32 %1, ptr %4, align 4, !tbaa !8
  call void @llvm.lifetime.start.p0(i64 4, ptr %5) #4
  %7 = load i32, ptr %4, align 4, !tbaa !8
  %8 = sub nsw i32 %7, 1
  store i32 %8, ptr %5, align 4, !tbaa !8
  call void @llvm.lifetime.start.p0(i64 4, ptr %6) #4
  store i32 0, ptr %6, align 4, !tbaa !8
  br label %9

9:                                                ; preds = %54, %2
  %10 = load i32, ptr %6, align 4, !tbaa !8
  %11 = load i32, ptr %4, align 4, !tbaa !8
  %12 = icmp slt i32 %10, %11
  br i1 %12, label %13, label %57

13:                                               ; preds = %9
  %14 = load i32, ptr %6, align 4, !tbaa !8
  %15 = sitofp i32 %14 to double
  %16 = fmul reassoc nsz arcp double 0x401921FB54442D18, %15
  %17 = load i32, ptr %5, align 4, !tbaa !8
  %18 = sitofp i32 %17 to double
  %19 = fdiv reassoc nsz arcp double %16, %18
  %20 = fptrunc reassoc nsz arcp double %19 to float
  %21 = call reassoc nsz arcp float @cosf(float noundef %20) #4, !tbaa !8
  %22 = call reassoc nsz arcp float @llvm.fmuladd.f32(float 0xBFDAAA1780000000, float %21, float 0x3FCB981740000000)
  %23 = load i32, ptr %6, align 4, !tbaa !8
  %24 = sitofp i32 %23 to double
  %25 = fmul reassoc nsz arcp double 0x402921FB54442D18, %24
  %26 = load i32, ptr %5, align 4, !tbaa !8
  %27 = sitofp i32 %26 to double
  %28 = fdiv reassoc nsz arcp double %25, %27
  %29 = fptrunc reassoc nsz arcp double %28 to float
  %30 = call reassoc nsz arcp float @cosf(float noundef %29) #4, !tbaa !8
  %31 = call reassoc nsz arcp float @llvm.fmuladd.f32(float 0x3FD1BEAE00000000, float %30, float %22)
  %32 = load i32, ptr %6, align 4, !tbaa !8
  %33 = sitofp i32 %32 to double
  %34 = fmul reassoc nsz arcp double 0x4032D97C7F3321D2, %33
  %35 = load i32, ptr %5, align 4, !tbaa !8
  %36 = sitofp i32 %35 to double
  %37 = fdiv reassoc nsz arcp double %34, %36
  %38 = fptrunc reassoc nsz arcp double %37 to float
  %39 = call reassoc nsz arcp float @cosf(float noundef %38) #4, !tbaa !8
  %40 = call reassoc nsz arcp float @llvm.fmuladd.f32(float 0xBFB5656E00000000, float %39, float %31)
  %41 = load i32, ptr %6, align 4, !tbaa !8
  %42 = sitofp i32 %41 to double
  %43 = fmul reassoc nsz arcp double 0x403921FB54442D18, %42
  %44 = load i32, ptr %5, align 4, !tbaa !8
  %45 = sitofp i32 %44 to double
  %46 = fdiv reassoc nsz arcp double %43, %45
  %47 = fptrunc reassoc nsz arcp double %46 to float
  %48 = call reassoc nsz arcp float @cosf(float noundef %47) #4, !tbaa !8
  %49 = call reassoc nsz arcp float @llvm.fmuladd.f32(float 0x3F7C74D7E0000000, float %48, float %40)
  %50 = load ptr, ptr %3, align 8, !tbaa !3
  %51 = load i32, ptr %6, align 4, !tbaa !8
  %52 = sext i32 %51 to i64
  %53 = getelementptr inbounds float, ptr %50, i64 %52
  store float %49, ptr %53, align 4, !tbaa !10
  br label %54

54:                                               ; preds = %13
  %55 = load i32, ptr %6, align 4, !tbaa !8
  %56 = add nsw i32 %55, 1
  store i32 %56, ptr %6, align 4, !tbaa !8
  br label %9, !llvm.loop !23

57:                                               ; preds = %9
  call void @llvm.lifetime.end.p0(i64 4, ptr %6) #4
  call void @llvm.lifetime.end.p0(i64 4, ptr %5) #4
  ret void
}