; Function Attrs: nofree nounwind sspstrong memory(write) uwtable
define hidden void @FLAC__window_flattop(ptr noundef writeonly captures(none) %0, i32 noundef %1) local_unnamed_addr #1 {
  %3 = icmp sgt i32 %1, 0
  br i1 %3, label %.lr.ph, label %._crit_edge

.lr.ph:                                           ; preds = %2
  %4 = add nsw i32 %1, -1
  %5 = uitofp nneg i32 %4 to double
  %wide.trip.count = zext nneg i32 %1 to i64
  %6 = fdiv reassoc nsz arcp double 1.000000e+00, %5
  %7 = fdiv reassoc nsz arcp double 1.000000e+00, %5
  %8 = fdiv reassoc nsz arcp double 1.000000e+00, %5
  %9 = fdiv reassoc nsz arcp double 1.000000e+00, %5
  br label %10

10:                                               ; preds = %.lr.ph, %10
  %indvars.iv = phi i64 [ 0, %.lr.ph ], [ %indvars.iv.next, %10 ]
  %11 = trunc nuw nsw i64 %indvars.iv to i32
  %12 = uitofp nneg i32 %11 to double
  %13 = fmul reassoc nsz arcp double %12, 0x401921FB54442D18
  %14 = fmul reassoc nsz arcp double %13, %6
  %15 = fptrunc reassoc nsz arcp double %14 to float
  %16 = tail call reassoc nsz arcp float @cosf(float noundef %15) #6, !tbaa !12
  %17 = tail call reassoc nsz arcp float @llvm.fmuladd.f32(float %16, float 0xBFDAAA1780000000, float 0x3FCB981740000000)
  %18 = fmul reassoc nsz arcp double %12, 0x402921FB54442D18
  %19 = fmul reassoc nsz arcp double %18, %7
  %20 = fptrunc reassoc nsz arcp double %19 to float
  %21 = tail call reassoc nsz arcp float @cosf(float noundef %20) #6, !tbaa !12
  %22 = tail call reassoc nsz arcp float @llvm.fmuladd.f32(float %21, float 0x3FD1BEAE00000000, float %17)
  %23 = fmul reassoc nsz arcp double %12, 0x4032D97C7F3321D2
  %24 = fmul reassoc nsz arcp double %23, %8
  %25 = fptrunc reassoc nsz arcp double %24 to float
  %26 = tail call reassoc nsz arcp float @cosf(float noundef %25) #6, !tbaa !12
  %27 = tail call reassoc nsz arcp float @llvm.fmuladd.f32(float %26, float 0xBFB5656E00000000, float %22)
  %28 = fmul reassoc nsz arcp double %12, 0x403921FB54442D18
  %29 = fmul reassoc nsz arcp double %28, %9
  %30 = fptrunc reassoc nsz arcp double %29 to float
  %31 = tail call reassoc nsz arcp float @cosf(float noundef %30) #6, !tbaa !12
  %32 = tail call reassoc nsz arcp float @llvm.fmuladd.f32(float %31, float 0x3F7C74D7E0000000, float %27)
  %33 = getelementptr inbounds nuw float, ptr %0, i64 %indvars.iv
  store float %32, ptr %33, align 4, !tbaa !3
  %indvars.iv.next = add nuw nsw i64 %indvars.iv, 1
  %exitcond.not = icmp eq i64 %indvars.iv.next, %wide.trip.count
  br i1 %exitcond.not, label %._crit_edge, label %10, !llvm.loop !18

._crit_edge:                                      ; preds = %10, %2
  ret void
}